
if:	file format Mach-O 64-bit x86-64

Disassembly of section __TEXT,__text:
__text:
100000c40:	55 	pushq	%rbp
100000c41:	48 89 e5 	movq	%rsp, %rbp
100000c44:	48 83 ec 20 	subq	$32, %rsp
100000c48:	48 89 7d f8 	movq	%rdi, -8(%rbp)
100000c4c:	48 89 75 f0 	movq	%rsi, -16(%rbp)
100000c50:	48 c7 45 e8 00 00 00 00 	movq	$0, -24(%rbp)
100000c58:	48 8b 45 e8 	movq	-24(%rbp), %rax
100000c5c:	48 3b 45 f0 	cmpq	-16(%rbp), %rax
100000c60:	0f 83 2d 00 00 00 	jae	45 <__intp_+0x53>
100000c66:	48 8d 3d 71 02 00 00 	leaq	625(%rip), %rdi
100000c6d:	48 8b 45 f8 	movq	-8(%rbp), %rax
100000c71:	48 8b 4d e8 	movq	-24(%rbp), %rcx
100000c75:	8b 34 88 	movl	(%rax,%rcx,4), %esi
100000c78:	b0 00 	movb	$0, %al
100000c7a:	e8 2b 02 00 00 	callq	555
100000c7f:	48 8b 4d e8 	movq	-24(%rbp), %rcx
100000c83:	48 83 c1 01 	addq	$1, %rcx
100000c87:	48 89 4d e8 	movq	%rcx, -24(%rbp)
100000c8b:	89 45 e4 	movl	%eax, -28(%rbp)
100000c8e:	e9 c5 ff ff ff 	jmp	-59 <__intp_+0x18>
100000c93:	48 83 c4 20 	addq	$32, %rsp
100000c97:	5d 	popq	%rbp
100000c98:	c3 	retq
100000c99:	0f 1f 80 00 00 00 00 	nopl	(%rax)
100000ca0:	55 	pushq	%rbp
100000ca1:	48 89 e5 	movq	%rsp, %rbp
100000ca4:	48 83 ec 20 	subq	$32, %rsp
100000ca8:	48 89 7d f8 	movq	%rdi, -8(%rbp)
100000cac:	48 89 75 f0 	movq	%rsi, -16(%rbp)
100000cb0:	48 c7 45 e8 00 00 00 00 	movq	$0, -24(%rbp)
100000cb8:	48 8b 45 e8 	movq	-24(%rbp), %rax
100000cbc:	48 3b 45 f0 	cmpq	-16(%rbp), %rax
100000cc0:	0f 83 52 00 00 00 	jae	82 <__boolp_+0x78>
100000cc6:	48 8b 45 f8 	movq	-8(%rbp), %rax
100000cca:	48 8b 4d e8 	movq	-24(%rbp), %rcx
100000cce:	8a 14 08 	movb	(%rax,%rcx), %dl
100000cd1:	80 e2 01 	andb	$1, %dl
100000cd4:	0f b6 f2 	movzbl	%dl, %esi
100000cd7:	83 fe 01 	cmpl	$1, %esi
100000cda:	0f 85 16 00 00 00 	jne	22 <__boolp_+0x56>
100000ce0:	48 8d 3d fb 01 00 00 	leaq	507(%rip), %rdi
100000ce7:	b0 00 	movb	$0, %al
100000ce9:	e8 bc 01 00 00 	callq	444
100000cee:	89 45 e4 	movl	%eax, -28(%rbp)
100000cf1:	e9 11 00 00 00 	jmp	17 <__boolp_+0x67>
100000cf6:	48 8d 3d eb 01 00 00 	leaq	491(%rip), %rdi
100000cfd:	b0 00 	movb	$0, %al
100000cff:	e8 a6 01 00 00 	callq	422
100000d04:	89 45 e0 	movl	%eax, -32(%rbp)
100000d07:	48 8b 45 e8 	movq	-24(%rbp), %rax
100000d0b:	48 83 c0 01 	addq	$1, %rax
100000d0f:	48 89 45 e8 	movq	%rax, -24(%rbp)
100000d13:	e9 a0 ff ff ff 	jmp	-96 <__boolp_+0x18>
100000d18:	48 83 c4 20 	addq	$32, %rsp
100000d1c:	5d 	popq	%rbp
100000d1d:	c3 	retq
100000d1e:	66 90 	nop
100000d20:	55 	pushq	%rbp
100000d21:	48 89 e5 	movq	%rsp, %rbp
100000d24:	48 83 ec 20 	subq	$32, %rsp
100000d28:	48 89 7d f8 	movq	%rdi, -8(%rbp)
100000d2c:	48 89 75 f0 	movq	%rsi, -16(%rbp)
100000d30:	48 c7 45 e8 00 00 00 00 	movq	$0, -24(%rbp)
100000d38:	48 8b 45 e8 	movq	-24(%rbp), %rax
100000d3c:	48 3b 45 f0 	cmpq	-16(%rbp), %rax
100000d40:	0f 83 3f 00 00 00 	jae	63 <__vectp_+0x65>
100000d46:	48 8d 3d a2 01 00 00 	leaq	418(%rip), %rdi
100000d4d:	48 8b 45 f8 	movq	-8(%rbp), %rax
100000d51:	48 8b 4d e8 	movq	-24(%rbp), %rcx
100000d55:	48 8b 04 c8 	movq	(%rax,%rcx,8), %rax
100000d59:	8b 30 	movl	(%rax), %esi
100000d5b:	48 8b 45 f8 	movq	-8(%rbp), %rax
100000d5f:	48 8b 4d e8 	movq	-24(%rbp), %rcx
100000d63:	48 8b 04 c8 	movq	(%rax,%rcx,8), %rax
100000d67:	8b 50 04 	movl	4(%rax), %edx
100000d6a:	b0 00 	movb	$0, %al
100000d6c:	e8 39 01 00 00 	callq	313
100000d71:	48 8b 4d e8 	movq	-24(%rbp), %rcx
100000d75:	48 83 c1 01 	addq	$1, %rcx
100000d79:	48 89 4d e8 	movq	%rcx, -24(%rbp)
100000d7d:	89 45 e4 	movl	%eax, -28(%rbp)
100000d80:	e9 b3 ff ff ff 	jmp	-77 <__vectp_+0x18>
100000d85:	48 83 c4 20 	addq	$32, %rsp
100000d89:	5d 	popq	%rbp
100000d8a:	c3 	retq
100000d8b:	0f 1f 44 00 00 	nopl	(%rax,%rax)
100000d90:	55 	pushq	%rbp
100000d91:	48 89 e5 	movq	%rsp, %rbp
100000d94:	48 83 ec 20 	subq	$32, %rsp
100000d98:	48 89 7d f8 	movq	%rdi, -8(%rbp)
100000d9c:	48 89 75 f0 	movq	%rsi, -16(%rbp)
100000da0:	48 83 7d f8 00 	cmpq	$0, -8(%rbp)
100000da5:	0f 84 29 00 00 00 	je	41 <__nodep_+0x44>
100000dab:	48 8d 3d 46 01 00 00 	leaq	326(%rip), %rdi
100000db2:	48 8b 45 f8 	movq	-8(%rbp), %rax
100000db6:	48 8b 70 08 	movq	8(%rax), %rsi
100000dba:	b0 00 	movb	$0, %al
100000dbc:	e8 e9 00 00 00 	callq	233
100000dc1:	48 8b 75 f8 	movq	-8(%rbp), %rsi
100000dc5:	48 8b 36 	movq	(%rsi), %rsi
100000dc8:	48 89 75 f8 	movq	%rsi, -8(%rbp)
100000dcc:	89 45 ec 	movl	%eax, -20(%rbp)
100000dcf:	e9 cc ff ff ff 	jmp	-52 <__nodep_+0x10>
100000dd4:	48 83 c4 20 	addq	$32, %rsp
100000dd8:	5d 	popq	%rbp
100000dd9:	c3 	retq
100000dda:	66 0f 1f 44 00 00 	nopw	(%rax,%rax)
100000de0:	55 	pushq	%rbp
100000de1:	48 89 e5 	movq	%rsp, %rbp
100000de4:	48 83 ec 20 	subq	$32, %rsp
100000de8:	48 8d 05 0d 01 00 00 	leaq	269(%rip), %rax
100000def:	48 8d 15 65 01 00 00 	leaq	357(%rip), %rdx
100000df6:	b9 61 00 00 00 	movl	$97, %ecx
100000dfb:	4c 8b 05 0e 02 00 00 	movq	526(%rip), %r8
100000e02:	48 89 7d f8 	movq	%rdi, -8(%rbp)
100000e06:	48 89 75 f0 	movq	%rsi, -16(%rbp)
100000e0a:	49 8b 38 	movq	(%r8), %rdi
100000e0d:	48 89 c6 	movq	%rax, %rsi
100000e10:	b0 00 	movb	$0, %al
100000e12:	e8 8d 00 00 00 	callq	141
100000e17:	89 45 ec 	movl	%eax, -20(%rbp)
100000e1a:	48 83 c4 20 	addq	$32, %rsp
100000e1e:	5d 	popq	%rbp
100000e1f:	c3 	retq
100000e20:	55 	pushq	%rbp
100000e21:	48 89 e5 	movq	%rsp, %rbp
100000e24:	48 83 ec 20 	subq	$32, %rsp
100000e28:	c7 45 fc 00 00 00 00 	movl	$0, -4(%rbp)
100000e2f:	48 8b 45 f0 	movq	-16(%rbp), %rax
100000e33:	48 89 45 e8 	movq	%rax, -24(%rbp)
100000e37:	48 8b 45 f0 	movq	-16(%rbp), %rax
100000e3b:	48 3b 45 e8 	cmpq	-24(%rbp), %rax
100000e3f:	0f 84 4f 00 00 00 	je	79 <_main+0x74>
100000e45:	b8 01 00 00 00 	movl	$1, %eax
100000e4a:	89 c1 	movl	%eax, %ecx
100000e4c:	48 89 cf 	movq	%rcx, %rdi
100000e4f:	48 89 ce 	movq	%rcx, %rsi
100000e52:	e8 47 00 00 00 	callq	71
100000e57:	48 89 45 f0 	movq	%rax, -16(%rbp)
100000e5b:	48 83 f8 00 	cmpq	$0, %rax
100000e5f:	0f 85 2a 00 00 00 	jne	42 <_main+0x6f>
100000e65:	48 8d 35 fb 00 00 00 	leaq	251(%rip), %rsi
100000e6c:	48 8d 15 3d 01 00 00 	leaq	317(%rip), %rdx
100000e73:	b9 09 00 00 00 	movl	$9, %ecx
100000e78:	45 31 c0 	xorl	%r8d, %r8d
100000e7b:	48 8b 05 8e 01 00 00 	movq	398(%rip), %rax
100000e82:	48 8b 38 	movq	(%rax), %rdi
100000e85:	b0 00 	movb	$0, %al
100000e87:	e8 18 00 00 00 	callq	24
100000e8c:	89 45 e4 	movl	%eax, -28(%rbp)
100000e8f:	e9 00 00 00 00 	jmp	0 <_main+0x74>
100000e94:	8b 45 fc 	movl	-4(%rbp), %eax
100000e97:	48 83 c4 20 	addq	$32, %rsp
100000e9b:	5d 	popq	%rbp
100000e9c:	c3 	retq

__intp_:
100000c40:	55 	pushq	%rbp
100000c41:	48 89 e5 	movq	%rsp, %rbp
100000c44:	48 83 ec 20 	subq	$32, %rsp
100000c48:	48 89 7d f8 	movq	%rdi, -8(%rbp)
100000c4c:	48 89 75 f0 	movq	%rsi, -16(%rbp)
100000c50:	48 c7 45 e8 00 00 00 00 	movq	$0, -24(%rbp)
100000c58:	48 8b 45 e8 	movq	-24(%rbp), %rax
100000c5c:	48 3b 45 f0 	cmpq	-16(%rbp), %rax
100000c60:	0f 83 2d 00 00 00 	jae	45 <__intp_+0x53>
100000c66:	48 8d 3d 71 02 00 00 	leaq	625(%rip), %rdi
100000c6d:	48 8b 45 f8 	movq	-8(%rbp), %rax
100000c71:	48 8b 4d e8 	movq	-24(%rbp), %rcx
100000c75:	8b 34 88 	movl	(%rax,%rcx,4), %esi
100000c78:	b0 00 	movb	$0, %al
100000c7a:	e8 2b 02 00 00 	callq	555
100000c7f:	48 8b 4d e8 	movq	-24(%rbp), %rcx
100000c83:	48 83 c1 01 	addq	$1, %rcx
100000c87:	48 89 4d e8 	movq	%rcx, -24(%rbp)
100000c8b:	89 45 e4 	movl	%eax, -28(%rbp)
100000c8e:	e9 c5 ff ff ff 	jmp	-59 <__intp_+0x18>
100000c93:	48 83 c4 20 	addq	$32, %rsp
100000c97:	5d 	popq	%rbp
100000c98:	c3 	retq
100000c99:	0f 1f 80 00 00 00 00 	nopl	(%rax)

__boolp_:
100000ca0:	55 	pushq	%rbp
100000ca1:	48 89 e5 	movq	%rsp, %rbp
100000ca4:	48 83 ec 20 	subq	$32, %rsp
100000ca8:	48 89 7d f8 	movq	%rdi, -8(%rbp)
100000cac:	48 89 75 f0 	movq	%rsi, -16(%rbp)
100000cb0:	48 c7 45 e8 00 00 00 00 	movq	$0, -24(%rbp)
100000cb8:	48 8b 45 e8 	movq	-24(%rbp), %rax
100000cbc:	48 3b 45 f0 	cmpq	-16(%rbp), %rax
100000cc0:	0f 83 52 00 00 00 	jae	82 <__boolp_+0x78>
100000cc6:	48 8b 45 f8 	movq	-8(%rbp), %rax
100000cca:	48 8b 4d e8 	movq	-24(%rbp), %rcx
100000cce:	8a 14 08 	movb	(%rax,%rcx), %dl
100000cd1:	80 e2 01 	andb	$1, %dl
100000cd4:	0f b6 f2 	movzbl	%dl, %esi
100000cd7:	83 fe 01 	cmpl	$1, %esi
100000cda:	0f 85 16 00 00 00 	jne	22 <__boolp_+0x56>
100000ce0:	48 8d 3d fb 01 00 00 	leaq	507(%rip), %rdi
100000ce7:	b0 00 	movb	$0, %al
100000ce9:	e8 bc 01 00 00 	callq	444
100000cee:	89 45 e4 	movl	%eax, -28(%rbp)
100000cf1:	e9 11 00 00 00 	jmp	17 <__boolp_+0x67>
100000cf6:	48 8d 3d eb 01 00 00 	leaq	491(%rip), %rdi
100000cfd:	b0 00 	movb	$0, %al
100000cff:	e8 a6 01 00 00 	callq	422
100000d04:	89 45 e0 	movl	%eax, -32(%rbp)
100000d07:	48 8b 45 e8 	movq	-24(%rbp), %rax
100000d0b:	48 83 c0 01 	addq	$1, %rax
100000d0f:	48 89 45 e8 	movq	%rax, -24(%rbp)
100000d13:	e9 a0 ff ff ff 	jmp	-96 <__boolp_+0x18>
100000d18:	48 83 c4 20 	addq	$32, %rsp
100000d1c:	5d 	popq	%rbp
100000d1d:	c3 	retq
100000d1e:	66 90 	nop

__vectp_:
100000d20:	55 	pushq	%rbp
100000d21:	48 89 e5 	movq	%rsp, %rbp
100000d24:	48 83 ec 20 	subq	$32, %rsp
100000d28:	48 89 7d f8 	movq	%rdi, -8(%rbp)
100000d2c:	48 89 75 f0 	movq	%rsi, -16(%rbp)
100000d30:	48 c7 45 e8 00 00 00 00 	movq	$0, -24(%rbp)
100000d38:	48 8b 45 e8 	movq	-24(%rbp), %rax
100000d3c:	48 3b 45 f0 	cmpq	-16(%rbp), %rax
100000d40:	0f 83 3f 00 00 00 	jae	63 <__vectp_+0x65>
100000d46:	48 8d 3d a2 01 00 00 	leaq	418(%rip), %rdi
100000d4d:	48 8b 45 f8 	movq	-8(%rbp), %rax
100000d51:	48 8b 4d e8 	movq	-24(%rbp), %rcx
100000d55:	48 8b 04 c8 	movq	(%rax,%rcx,8), %rax
100000d59:	8b 30 	movl	(%rax), %esi
100000d5b:	48 8b 45 f8 	movq	-8(%rbp), %rax
100000d5f:	48 8b 4d e8 	movq	-24(%rbp), %rcx
100000d63:	48 8b 04 c8 	movq	(%rax,%rcx,8), %rax
100000d67:	8b 50 04 	movl	4(%rax), %edx
100000d6a:	b0 00 	movb	$0, %al
100000d6c:	e8 39 01 00 00 	callq	313
100000d71:	48 8b 4d e8 	movq	-24(%rbp), %rcx
100000d75:	48 83 c1 01 	addq	$1, %rcx
100000d79:	48 89 4d e8 	movq	%rcx, -24(%rbp)
100000d7d:	89 45 e4 	movl	%eax, -28(%rbp)
100000d80:	e9 b3 ff ff ff 	jmp	-77 <__vectp_+0x18>
100000d85:	48 83 c4 20 	addq	$32, %rsp
100000d89:	5d 	popq	%rbp
100000d8a:	c3 	retq
100000d8b:	0f 1f 44 00 00 	nopl	(%rax,%rax)

__nodep_:
100000d90:	55 	pushq	%rbp
100000d91:	48 89 e5 	movq	%rsp, %rbp
100000d94:	48 83 ec 20 	subq	$32, %rsp
100000d98:	48 89 7d f8 	movq	%rdi, -8(%rbp)
100000d9c:	48 89 75 f0 	movq	%rsi, -16(%rbp)
100000da0:	48 83 7d f8 00 	cmpq	$0, -8(%rbp)
100000da5:	0f 84 29 00 00 00 	je	41 <__nodep_+0x44>
100000dab:	48 8d 3d 46 01 00 00 	leaq	326(%rip), %rdi
100000db2:	48 8b 45 f8 	movq	-8(%rbp), %rax
100000db6:	48 8b 70 08 	movq	8(%rax), %rsi
100000dba:	b0 00 	movb	$0, %al
100000dbc:	e8 e9 00 00 00 	callq	233
100000dc1:	48 8b 75 f8 	movq	-8(%rbp), %rsi
100000dc5:	48 8b 36 	movq	(%rsi), %rsi
100000dc8:	48 89 75 f8 	movq	%rsi, -8(%rbp)
100000dcc:	89 45 ec 	movl	%eax, -20(%rbp)
100000dcf:	e9 cc ff ff ff 	jmp	-52 <__nodep_+0x10>
100000dd4:	48 83 c4 20 	addq	$32, %rsp
100000dd8:	5d 	popq	%rbp
100000dd9:	c3 	retq
100000dda:	66 0f 1f 44 00 00 	nopw	(%rax,%rax)

__defp_:
100000de0:	55 	pushq	%rbp
100000de1:	48 89 e5 	movq	%rsp, %rbp
100000de4:	48 83 ec 20 	subq	$32, %rsp
100000de8:	48 8d 05 0d 01 00 00 	leaq	269(%rip), %rax
100000def:	48 8d 15 65 01 00 00 	leaq	357(%rip), %rdx
100000df6:	b9 61 00 00 00 	movl	$97, %ecx
100000dfb:	4c 8b 05 0e 02 00 00 	movq	526(%rip), %r8
100000e02:	48 89 7d f8 	movq	%rdi, -8(%rbp)
100000e06:	48 89 75 f0 	movq	%rsi, -16(%rbp)
100000e0a:	49 8b 38 	movq	(%r8), %rdi
100000e0d:	48 89 c6 	movq	%rax, %rsi
100000e10:	b0 00 	movb	$0, %al
100000e12:	e8 8d 00 00 00 	callq	141
100000e17:	89 45 ec 	movl	%eax, -20(%rbp)
100000e1a:	48 83 c4 20 	addq	$32, %rsp
100000e1e:	5d 	popq	%rbp
100000e1f:	c3 	retq

_main:
100000e20:	55 	pushq	%rbp
100000e21:	48 89 e5 	movq	%rsp, %rbp
100000e24:	48 83 ec 20 	subq	$32, %rsp
100000e28:	c7 45 fc 00 00 00 00 	movl	$0, -4(%rbp)
100000e2f:	48 8b 45 f0 	movq	-16(%rbp), %rax
100000e33:	48 89 45 e8 	movq	%rax, -24(%rbp)
100000e37:	48 8b 45 f0 	movq	-16(%rbp), %rax
100000e3b:	48 3b 45 e8 	cmpq	-24(%rbp), %rax
100000e3f:	0f 84 4f 00 00 00 	je	79 <_main+0x74>
100000e45:	b8 01 00 00 00 	movl	$1, %eax
100000e4a:	89 c1 	movl	%eax, %ecx
100000e4c:	48 89 cf 	movq	%rcx, %rdi
100000e4f:	48 89 ce 	movq	%rcx, %rsi
100000e52:	e8 47 00 00 00 	callq	71
100000e57:	48 89 45 f0 	movq	%rax, -16(%rbp)
100000e5b:	48 83 f8 00 	cmpq	$0, %rax
100000e5f:	0f 85 2a 00 00 00 	jne	42 <_main+0x6f>
100000e65:	48 8d 35 fb 00 00 00 	leaq	251(%rip), %rsi
100000e6c:	48 8d 15 3d 01 00 00 	leaq	317(%rip), %rdx
100000e73:	b9 09 00 00 00 	movl	$9, %ecx
100000e78:	45 31 c0 	xorl	%r8d, %r8d
100000e7b:	48 8b 05 8e 01 00 00 	movq	398(%rip), %rax
100000e82:	48 8b 38 	movq	(%rax), %rdi
100000e85:	b0 00 	movb	$0, %al
100000e87:	e8 18 00 00 00 	callq	24
100000e8c:	89 45 e4 	movl	%eax, -28(%rbp)
100000e8f:	e9 00 00 00 00 	jmp	0 <_main+0x74>
100000e94:	8b 45 fc 	movl	-4(%rbp), %eax
100000e97:	48 83 c4 20 	addq	$32, %rsp
100000e9b:	5d 	popq	%rbp
100000e9c:	c3 	retq
Disassembly of section __TEXT,__stubs:
__stubs:
100000e9e:	ff 25 74 01 00 00 	jmpq	*372(%rip)
100000ea4:	ff 25 76 01 00 00 	jmpq	*374(%rip)
100000eaa:	ff 25 78 01 00 00 	jmpq	*376(%rip)
Disassembly of section __TEXT,__stub_helper:
__stub_helper:
100000eb0:	4c 8d 1d 51 01 00 00 	leaq	337(%rip), %r11
100000eb7:	41 53 	pushq	%r11
100000eb9:	ff 25 41 01 00 00 	jmpq	*321(%rip)
100000ebf:	90 	nop
100000ec0:	68 00 00 00 00 	pushq	$0
100000ec5:	e9 e6 ff ff ff 	jmp	-26 <__stub_helper>
100000eca:	68 0e 00 00 00 	pushq	$14
100000ecf:	e9 dc ff ff ff 	jmp	-36 <__stub_helper>
100000ed4:	68 1d 00 00 00 	pushq	$29
100000ed9:	e9 d2 ff ff ff 	jmp	-46 <__stub_helper>
